target datalayout = "e-m:e-p270:32:32-p271:32:32-p272:64:64-i64:64-i128:128-f80:128-n8:16:32:64-S128"
target triple = "x86_64-pc-linux-gnu"

%struct.cgltf_memory_options = type { ptr, ptr, ptr }
%struct.cgltf_file_options = type { ptr, ptr, ptr }
%struct.cgltf_data = type { i32, ptr, %struct.cgltf_asset, ptr, i64, ptr, i64, ptr, i64, ptr, i64, ptr, i64, ptr, i64, ptr, i64, ptr, i64, ptr, i64, ptr, i64, ptr, i64, ptr, i64, ptr, i64, ptr, ptr, i64, ptr, i64, %struct.cgltf_extras, i64, ptr, ptr, i64, ptr, i64, ptr, i64, ptr, i64, %struct.cgltf_memory_options, %struct.cgltf_file_options }
%struct.cgltf_asset = type { ptr, ptr, ptr, ptr, %struct.cgltf_extras, i64, ptr }
%struct.cgltf_extras = type { i64, i64, ptr }

; Function Attrs: nounwind uwtable
define hidden i32 @cgltf_copy_extras_json(ptr noundef %0, ptr noundef %1, ptr noundef %2, ptr noundef %3) #0 {
  %5 = alloca i32, align 4
  %6 = alloca ptr, align 8
  %7 = alloca ptr, align 8
  %8 = alloca ptr, align 8
  %9 = alloca ptr, align 8
  %10 = alloca i64, align 8
  %11 = alloca i32, align 4
  store ptr %0, ptr %6, align 8
  store ptr %1, ptr %7, align 8
  store ptr %2, ptr %8, align 8
  store ptr %3, ptr %9, align 8
  call void @llvm.lifetime.start.p0(i64 8, ptr %10) #16
  %12 = load ptr, ptr %7, align 8
  %13 = getelementptr inbounds nuw %struct.cgltf_extras, ptr %12, i32 0, i32 1
  %14 = load i64, ptr %13, align 8
  %15 = load ptr, ptr %7, align 8
  %16 = getelementptr inbounds nuw %struct.cgltf_extras, ptr %15, i32 0, i32 0
  %17 = load i64, ptr %16, align 8
  %18 = sub i64 %14, %17
  store i64 %18, ptr %10, align 8
  %19 = load ptr, ptr %8, align 8
  %20 = icmp ne ptr %19, null
  br i1 %20, label %29, label %21

21:                                               ; preds = %4
  %22 = load ptr, ptr %9, align 8
  %23 = icmp ne ptr %22, null
  br i1 %23, label %24, label %28

24:                                               ; preds = %21
  %25 = load i64, ptr %10, align 8
  %26 = add i64 %25, 1
  %27 = load ptr, ptr %9, align 8
  store i64 %26, ptr %27, align 8
  store i32 0, ptr %5, align 4
  store i32 1, ptr %11, align 4
  br label %68

28:                                               ; preds = %21
  store i32 5, ptr %5, align 4
  store i32 1, ptr %11, align 4
  br label %68

29:                                               ; preds = %4
  %30 = load ptr, ptr %9, align 8
  %31 = load i64, ptr %30, align 8
  %32 = add i64 %31, 1
  %33 = load i64, ptr %10, align 8
  %34 = icmp ult i64 %32, %33
  br i1 %34, label %35, label %53

35:                                               ; preds = %29
  %36 = load ptr, ptr %8, align 8
  %37 = load ptr, ptr %6, align 8
  %38 = getelementptr inbounds nuw %struct.cgltf_data, ptr %37, i32 0, i32 41
  %39 = load ptr, ptr %38, align 8
  %40 = load ptr, ptr %7, align 8
  %41 = getelementptr inbounds nuw %struct.cgltf_extras, ptr %40, i32 0, i32 0
  %42 = load i64, ptr %41, align 8
  %43 = getelementptr inbounds nuw i8, ptr %39, i64 %42
  %44 = load ptr, ptr %9, align 8
  %45 = load i64, ptr %44, align 8
  %46 = sub i64 %45, 1
  %47 = call ptr @strncpy(ptr noundef %36, ptr noundef %43, i64 noundef %46) #16
  %48 = load ptr, ptr %8, align 8
  %49 = load ptr, ptr %9, align 8
  %50 = load i64, ptr %49, align 8
  %51 = sub i64 %50, 1
  %52 = getelementptr inbounds nuw i8, ptr %48, i64 %51
  store i8 0, ptr %52, align 1
  br label %67

53:                                               ; preds = %29
  %54 = load ptr, ptr %8, align 8
  %55 = load ptr, ptr %6, align 8
  %56 = getelementptr inbounds nuw %struct.cgltf_data, ptr %55, i32 0, i32 41
  %57 = load ptr, ptr %56, align 8
  %58 = load ptr, ptr %7, align 8
  %59 = getelementptr inbounds nuw %struct.cgltf_extras, ptr %58, i32 0, i32 0
  %60 = load i64, ptr %59, align 8
  %61 = getelementptr inbounds nuw i8, ptr %57, i64 %60
  %62 = load i64, ptr %10, align 8
  %63 = call ptr @strncpy(ptr noundef %54, ptr noundef %61, i64 noundef %62) #16
  %64 = load ptr, ptr %8, align 8
  %65 = load i64, ptr %10, align 8
  %66 = getelementptr inbounds nuw i8, ptr %64, i64 %65
  store i8 0, ptr %66, align 1
  br label %67

67:                                               ; preds = %53, %35
  store i32 0, ptr %5, align 4
  store i32 1, ptr %11, align 4
  br label %68

68:                                               ; preds = %67, %28, %24
  call void @llvm.lifetime.end.p0(i64 8, ptr %10) #16
  %69 = load i32, ptr %5, align 4
  ret i32 %69
}