; Function Attrs: mustprogress nofree nounwind willreturn memory(readwrite, inaccessiblemem: none) uwtable
define hidden range(i32 0, 6) i32 @cgltf_copy_extras_json(ptr noundef readonly captures(none) %0, ptr noundef readonly captures(none) %1, ptr noundef %2, ptr noundef captures(address_is_null) %3) local_unnamed_addr #17 {
  %5 = getelementptr inbounds nuw i8, ptr %1, i64 8
  %6 = load i64, ptr %5, align 8
  %7 = load i64, ptr %1, align 8
  %8 = sub i64 %6, %7
  %.not = icmp eq ptr %2, null
  br i1 %.not, label %9, label %12

9:                                                ; preds = %4
  %.not23 = icmp eq ptr %3, null
  br i1 %.not23, label %28, label %10

10:                                               ; preds = %9
  %11 = add i64 %8, 1
  store i64 %11, ptr %3, align 8
  br label %28

12:                                               ; preds = %4
  %13 = load i64, ptr %3, align 8
  %14 = add i64 %13, 1
  %15 = icmp ult i64 %14, %8
  %16 = getelementptr inbounds nuw i8, ptr %0, i64 408
  %17 = load ptr, ptr %16, align 8
  %18 = getelementptr inbounds nuw i8, ptr %17, i64 %7
  br i1 %15, label %19, label %25

19:                                               ; preds = %12
  %20 = add i64 %13, -1
  %21 = tail call ptr @strncpy(ptr noundef nonnull %2, ptr noundef %18, i64 noundef %20) #57
  %22 = load i64, ptr %3, align 8
  %23 = getelementptr i8, ptr %2, i64 %22
  %24 = getelementptr i8, ptr %23, i64 -1
  store i8 0, ptr %24, align 1
  br label %28

25:                                               ; preds = %12
  %26 = tail call ptr @strncpy(ptr noundef nonnull %2, ptr noundef %18, i64 noundef %8) #57
  %27 = getelementptr inbounds nuw i8, ptr %2, i64 %8
  store i8 0, ptr %27, align 1
  br label %28

28:                                               ; preds = %19, %25, %9, %10
  %.0 = phi i32 [ 0, %10 ], [ 5, %9 ], [ 0, %25 ], [ 0, %19 ]
  ret i32 %.0
}